; Function Attrs: nounwind uwtable
define dso_local void @llvm_attribute_add_range(ptr nocapture noundef readonly %0, ptr noundef %1, i32 noundef %2, i32 noundef %3, i32 noundef %4) local_unnamed_addr #0 {
  %.not7 = icmp sgt i32 %3, %4
  br i1 %.not7, label %._crit_edge, label %.lr.ph

.lr.ph:                                           ; preds = %5
  %6 = getelementptr inbounds i8, ptr %0, i64 40
  br label %7

7:                                                ; preds = %.lr.ph, %7
  %.08 = phi i32 [ %3, %.lr.ph ], [ %10, %7 ]
  %8 = load ptr, ptr %6, align 8
  %9 = tail call ptr @LLVMCreateEnumAttribute(ptr noundef %8, i32 noundef %2, i64 noundef 0) #10
  tail call void @LLVMAddAttributeAtIndex(ptr noundef %1, i32 noundef %.08, ptr noundef %9) #10
  %10 = add i32 %.08, 1
  %exitcond.not = icmp eq i32 %.08, %4
  br i1 %exitcond.not, label %._crit_edge, label %7, !llvm.loop !13

._crit_edge:                                      ; preds = %7, %5
  ret void
}